target datalayout = "e-m:e-p270:32:32-p271:32:32-p272:64:64-i64:64-i128:128-f80:128-n8:16:32:64-S128"
target triple = "x86_64-pc-linux-gnu"

%struct.ACLCategoryItem = type { ptr, i64 }

@nextCommandCategory = internal global i64 0, align 8
@ACLCommandCategories = internal global ptr null, align 8

; Function Attrs: nounwind uwtable
define dso_local void @ACLCleanupCategoriesOnFailure(i64 noundef %0) #0 {
  %2 = alloca i64, align 8
  %3 = alloca i64, align 8
  store i64 %0, ptr %2, align 8, !tbaa !10
  call void @llvm.lifetime.start.p0(i64 8, ptr %3) #14
  %4 = load i64, ptr @nextCommandCategory, align 8, !tbaa !10
  %5 = load i64, ptr %2, align 8, !tbaa !10
  %6 = sub i64 %4, %5
  store i64 %6, ptr %3, align 8, !tbaa !10
  br label %7

7:                                                ; preds = %26, %1
  %8 = load i64, ptr %3, align 8, !tbaa !10
  %9 = load i64, ptr @nextCommandCategory, align 8, !tbaa !10
  %10 = icmp ult i64 %8, %9
  br i1 %10, label %12, label %11

11:                                               ; preds = %7
  call void @llvm.lifetime.end.p0(i64 8, ptr %3) #14
  br label %29

12:                                               ; preds = %7
  %13 = load ptr, ptr @ACLCommandCategories, align 8, !tbaa !12
  %14 = load i64, ptr %3, align 8, !tbaa !10
  %15 = getelementptr inbounds nuw %struct.ACLCategoryItem, ptr %13, i64 %14
  %16 = getelementptr inbounds nuw %struct.ACLCategoryItem, ptr %15, i32 0, i32 0
  %17 = load ptr, ptr %16, align 8, !tbaa !14
  call void @zfree(ptr noundef %17)
  %18 = load ptr, ptr @ACLCommandCategories, align 8, !tbaa !12
  %19 = load i64, ptr %3, align 8, !tbaa !10
  %20 = getelementptr inbounds nuw %struct.ACLCategoryItem, ptr %18, i64 %19
  %21 = getelementptr inbounds nuw %struct.ACLCategoryItem, ptr %20, i32 0, i32 0
  store ptr null, ptr %21, align 8, !tbaa !14
  %22 = load ptr, ptr @ACLCommandCategories, align 8, !tbaa !12
  %23 = load i64, ptr %3, align 8, !tbaa !10
  %24 = getelementptr inbounds nuw %struct.ACLCategoryItem, ptr %22, i64 %23
  %25 = getelementptr inbounds nuw %struct.ACLCategoryItem, ptr %24, i32 0, i32 1
  store i64 0, ptr %25, align 8, !tbaa !16
  br label %26

26:                                               ; preds = %12
  %27 = load i64, ptr %3, align 8, !tbaa !10
  %28 = add i64 %27, 1
  store i64 %28, ptr %3, align 8, !tbaa !10
  br label %7, !llvm.loop !21

29:                                               ; preds = %11
  %30 = load i64, ptr %2, align 8, !tbaa !10
  %31 = load i64, ptr @nextCommandCategory, align 8, !tbaa !10
  %32 = sub i64 %31, %30
  store i64 %32, ptr @nextCommandCategory, align 8, !tbaa !10
  ret void
}