; Function Attrs: nounwind uwtable
define dso_local void @ACLCleanupCategoriesOnFailure(i64 noundef %0) local_unnamed_addr #0 {
  %2 = load i64, ptr @nextCommandCategory, align 8, !tbaa !5
  %3 = sub i64 %2, %0
  %4 = icmp ult i64 %3, %2
  br i1 %4, label %.lr.ph.preheader, label %._crit_edge

.lr.ph.preheader:                                 ; preds = %1
  %.pre = load ptr, ptr @ACLCommandCategories, align 8, !tbaa !9
  br label %.lr.ph

._crit_edge.loopexit:                             ; preds = %.lr.ph
  %.pre10 = sub i64 %11, %0
  br label %._crit_edge

._crit_edge:                                      ; preds = %._crit_edge.loopexit, %1
  %.pre-phi = phi i64 [ %.pre10, %._crit_edge.loopexit ], [ %3, %1 ]
  store i64 %.pre-phi, ptr @nextCommandCategory, align 8, !tbaa !5
  ret void

.lr.ph:                                           ; preds = %.lr.ph.preheader, %.lr.ph
  %5 = phi ptr [ %8, %.lr.ph ], [ %.pre, %.lr.ph.preheader ]
  %.08 = phi i64 [ %10, %.lr.ph ], [ %3, %.lr.ph.preheader ]
  %6 = getelementptr inbounds nuw %struct.ACLCategoryItem, ptr %5, i64 %.08
  %7 = load ptr, ptr %6, align 8, !tbaa !12
  tail call void @zfree(ptr noundef %7) #25
  %8 = load ptr, ptr @ACLCommandCategories, align 8, !tbaa !9
  %9 = getelementptr inbounds nuw %struct.ACLCategoryItem, ptr %8, i64 %.08
  %10 = add nuw i64 %.08, 1
  tail call void @llvm.memset.p0.i64(ptr noundef nonnull align 8 dereferenceable(16) %9, i8 0, i64 16, i1 false)
  %11 = load i64, ptr @nextCommandCategory, align 8, !tbaa !5
  %12 = icmp ult i64 %10, %11
  br i1 %12, label %.lr.ph, label %._crit_edge.loopexit, !llvm.loop !18
}